target datalayout = "e-m:e-p270:32:32-p271:32:32-p272:64:64-i64:64-i128:128-f80:128-n8:16:32:64-S128"
target triple = "x86_64-pc-linux-gnu"

; Function Attrs: nounwind uwtable
define internal void @ff_h264_add_pixels8_16_c(ptr noundef %0, ptr noundef %1, i32 noundef %2) #1 {
  %4 = alloca ptr, align 8
  %5 = alloca ptr, align 8
  %6 = alloca i32, align 4
  %7 = alloca i32, align 4
  %8 = alloca ptr, align 8
  %9 = alloca ptr, align 8
  store ptr %0, ptr %4, align 8, !tbaa !39
  store ptr %1, ptr %5, align 8, !tbaa !41
  store i32 %2, ptr %6, align 4, !tbaa !9
  call void @llvm.lifetime.start.p0(i64 4, ptr %7) #9
  call void @llvm.lifetime.start.p0(i64 8, ptr %8) #9
  %10 = load ptr, ptr %4, align 8, !tbaa !39
  store ptr %10, ptr %8, align 8, !tbaa !41
  call void @llvm.lifetime.start.p0(i64 8, ptr %9) #9
  %11 = load ptr, ptr %5, align 8, !tbaa !41
  store ptr %11, ptr %9, align 8, !tbaa !43
  %12 = load i32, ptr %6, align 4, !tbaa !9
  %13 = sext i32 %12 to i64
  %14 = udiv i64 %13, 2
  %15 = trunc i64 %14 to i32
  store i32 %15, ptr %6, align 4, !tbaa !9
  store i32 0, ptr %7, align 4, !tbaa !9
  br label %16

16:                                               ; preds = %98, %3
  %17 = load i32, ptr %7, align 4, !tbaa !9
  %18 = icmp slt i32 %17, 8
  br i1 %18, label %19, label %101

19:                                               ; preds = %16
  %20 = load ptr, ptr %9, align 8, !tbaa !43
  %21 = getelementptr inbounds i32, ptr %20, i64 0
  %22 = load i32, ptr %21, align 4, !tbaa !9
  %23 = load ptr, ptr %8, align 8, !tbaa !41
  %24 = getelementptr inbounds i16, ptr %23, i64 0
  %25 = load i16, ptr %24, align 2, !tbaa !45
  %26 = zext i16 %25 to i32
  %27 = add i32 %26, %22
  %28 = trunc i32 %27 to i16
  store i16 %28, ptr %24, align 2, !tbaa !45
  %29 = load ptr, ptr %9, align 8, !tbaa !43
  %30 = getelementptr inbounds i32, ptr %29, i64 1
  %31 = load i32, ptr %30, align 4, !tbaa !9
  %32 = load ptr, ptr %8, align 8, !tbaa !41
  %33 = getelementptr inbounds i16, ptr %32, i64 1
  %34 = load i16, ptr %33, align 2, !tbaa !45
  %35 = zext i16 %34 to i32
  %36 = add i32 %35, %31
  %37 = trunc i32 %36 to i16
  store i16 %37, ptr %33, align 2, !tbaa !45
  %38 = load ptr, ptr %9, align 8, !tbaa !43
  %39 = getelementptr inbounds i32, ptr %38, i64 2
  %40 = load i32, ptr %39, align 4, !tbaa !9
  %41 = load ptr, ptr %8, align 8, !tbaa !41
  %42 = getelementptr inbounds i16, ptr %41, i64 2
  %43 = load i16, ptr %42, align 2, !tbaa !45
  %44 = zext i16 %43 to i32
  %45 = add i32 %44, %40
  %46 = trunc i32 %45 to i16
  store i16 %46, ptr %42, align 2, !tbaa !45
  %47 = load ptr, ptr %9, align 8, !tbaa !43
  %48 = getelementptr inbounds i32, ptr %47, i64 3
  %49 = load i32, ptr %48, align 4, !tbaa !9
  %50 = load ptr, ptr %8, align 8, !tbaa !41
  %51 = getelementptr inbounds i16, ptr %50, i64 3
  %52 = load i16, ptr %51, align 2, !tbaa !45
  %53 = zext i16 %52 to i32
  %54 = add i32 %53, %49
  %55 = trunc i32 %54 to i16
  store i16 %55, ptr %51, align 2, !tbaa !45
  %56 = load ptr, ptr %9, align 8, !tbaa !43
  %57 = getelementptr inbounds i32, ptr %56, i64 4
  %58 = load i32, ptr %57, align 4, !tbaa !9
  %59 = load ptr, ptr %8, align 8, !tbaa !41
  %60 = getelementptr inbounds i16, ptr %59, i64 4
  %61 = load i16, ptr %60, align 2, !tbaa !45
  %62 = zext i16 %61 to i32
  %63 = add i32 %62, %58
  %64 = trunc i32 %63 to i16
  store i16 %64, ptr %60, align 2, !tbaa !45
  %65 = load ptr, ptr %9, align 8, !tbaa !43
  %66 = getelementptr inbounds i32, ptr %65, i64 5
  %67 = load i32, ptr %66, align 4, !tbaa !9
  %68 = load ptr, ptr %8, align 8, !tbaa !41
  %69 = getelementptr inbounds i16, ptr %68, i64 5
  %70 = load i16, ptr %69, align 2, !tbaa !45
  %71 = zext i16 %70 to i32
  %72 = add i32 %71, %67
  %73 = trunc i32 %72 to i16
  store i16 %73, ptr %69, align 2, !tbaa !45
  %74 = load ptr, ptr %9, align 8, !tbaa !43
  %75 = getelementptr inbounds i32, ptr %74, i64 6
  %76 = load i32, ptr %75, align 4, !tbaa !9
  %77 = load ptr, ptr %8, align 8, !tbaa !41
  %78 = getelementptr inbounds i16, ptr %77, i64 6
  %79 = load i16, ptr %78, align 2, !tbaa !45
  %80 = zext i16 %79 to i32
  %81 = add i32 %80, %76
  %82 = trunc i32 %81 to i16
  store i16 %82, ptr %78, align 2, !tbaa !45
  %83 = load ptr, ptr %9, align 8, !tbaa !43
  %84 = getelementptr inbounds i32, ptr %83, i64 7
  %85 = load i32, ptr %84, align 4, !tbaa !9
  %86 = load ptr, ptr %8, align 8, !tbaa !41
  %87 = getelementptr inbounds i16, ptr %86, i64 7
  %88 = load i16, ptr %87, align 2, !tbaa !45
  %89 = zext i16 %88 to i32
  %90 = add i32 %89, %85
  %91 = trunc i32 %90 to i16
  store i16 %91, ptr %87, align 2, !tbaa !45
  %92 = load i32, ptr %6, align 4, !tbaa !9
  %93 = load ptr, ptr %8, align 8, !tbaa !41
  %94 = sext i32 %92 to i64
  %95 = getelementptr inbounds i16, ptr %93, i64 %94
  store ptr %95, ptr %8, align 8, !tbaa !41
  %96 = load ptr, ptr %9, align 8, !tbaa !43
  %97 = getelementptr inbounds i32, ptr %96, i64 8
  store ptr %97, ptr %9, align 8, !tbaa !43
  br label %98

98:                                               ; preds = %19
  %99 = load i32, ptr %7, align 4, !tbaa !9
  %100 = add nsw i32 %99, 1
  store i32 %100, ptr %7, align 4, !tbaa !9
  br label %16, !llvm.loop !49

101:                                              ; preds = %16
  %102 = load ptr, ptr %5, align 8, !tbaa !41
  call void @llvm.memset.p0.i64(ptr align 2 %102, i8 0, i64 256, i1 false)
  call void @llvm.lifetime.end.p0(i64 8, ptr %9) #9
  call void @llvm.lifetime.end.p0(i64 8, ptr %8) #9
  call void @llvm.lifetime.end.p0(i64 4, ptr %7) #9
  ret void
}