; Function Attrs: nofree norecurse nosync nounwind memory(argmem: readwrite) uwtable
define internal void @ff_h264_add_pixels8_16_c(ptr noundef captures(none) %0, ptr noundef captures(none) %1, i32 noundef %2) #1 {
  %4 = ashr i32 %2, 1
  %5 = sext i32 %4 to i64
  br label %6

6:                                                ; preds = %3, %6
  %.028 = phi ptr [ %1, %3 ], [ %54, %6 ]
  %.02427 = phi ptr [ %0, %3 ], [ %53, %6 ]
  %.02526 = phi i32 [ 0, %3 ], [ %55, %6 ]
  %7 = load i32, ptr %.028, align 4, !tbaa !35
  %8 = load i16, ptr %.02427, align 2, !tbaa !37
  %9 = trunc i32 %7 to i16
  %10 = add i16 %8, %9
  store i16 %10, ptr %.02427, align 2, !tbaa !37
  %11 = getelementptr inbounds nuw i8, ptr %.028, i64 4
  %12 = load i32, ptr %11, align 4, !tbaa !35
  %13 = getelementptr inbounds nuw i8, ptr %.02427, i64 2
  %14 = load i16, ptr %13, align 2, !tbaa !37
  %15 = trunc i32 %12 to i16
  %16 = add i16 %14, %15
  store i16 %16, ptr %13, align 2, !tbaa !37
  %17 = getelementptr inbounds nuw i8, ptr %.028, i64 8
  %18 = load i32, ptr %17, align 4, !tbaa !35
  %19 = getelementptr inbounds nuw i8, ptr %.02427, i64 4
  %20 = load i16, ptr %19, align 2, !tbaa !37
  %21 = trunc i32 %18 to i16
  %22 = add i16 %20, %21
  store i16 %22, ptr %19, align 2, !tbaa !37
  %23 = getelementptr inbounds nuw i8, ptr %.028, i64 12
  %24 = load i32, ptr %23, align 4, !tbaa !35
  %25 = getelementptr inbounds nuw i8, ptr %.02427, i64 6
  %26 = load i16, ptr %25, align 2, !tbaa !37
  %27 = trunc i32 %24 to i16
  %28 = add i16 %26, %27
  store i16 %28, ptr %25, align 2, !tbaa !37
  %29 = getelementptr inbounds nuw i8, ptr %.028, i64 16
  %30 = load i32, ptr %29, align 4, !tbaa !35
  %31 = getelementptr inbounds nuw i8, ptr %.02427, i64 8
  %32 = load i16, ptr %31, align 2, !tbaa !37
  %33 = trunc i32 %30 to i16
  %34 = add i16 %32, %33
  store i16 %34, ptr %31, align 2, !tbaa !37
  %35 = getelementptr inbounds nuw i8, ptr %.028, i64 20
  %36 = load i32, ptr %35, align 4, !tbaa !35
  %37 = getelementptr inbounds nuw i8, ptr %.02427, i64 10
  %38 = load i16, ptr %37, align 2, !tbaa !37
  %39 = trunc i32 %36 to i16
  %40 = add i16 %38, %39
  store i16 %40, ptr %37, align 2, !tbaa !37
  %41 = getelementptr inbounds nuw i8, ptr %.028, i64 24
  %42 = load i32, ptr %41, align 4, !tbaa !35
  %43 = getelementptr inbounds nuw i8, ptr %.02427, i64 12
  %44 = load i16, ptr %43, align 2, !tbaa !37
  %45 = trunc i32 %42 to i16
  %46 = add i16 %44, %45
  store i16 %46, ptr %43, align 2, !tbaa !37
  %47 = getelementptr inbounds nuw i8, ptr %.028, i64 28
  %48 = load i32, ptr %47, align 4, !tbaa !35
  %49 = getelementptr inbounds nuw i8, ptr %.02427, i64 14
  %50 = load i16, ptr %49, align 2, !tbaa !37
  %51 = trunc i32 %48 to i16
  %52 = add i16 %50, %51
  store i16 %52, ptr %49, align 2, !tbaa !37
  %53 = getelementptr inbounds i16, ptr %.02427, i64 %5
  %54 = getelementptr inbounds nuw i8, ptr %.028, i64 32
  %55 = add nuw nsw i32 %.02526, 1
  %exitcond.not = icmp eq i32 %55, 8
  br i1 %exitcond.not, label %56, label %6, !llvm.loop !41

56:                                               ; preds = %6
  tail call void @llvm.memset.p0.i64(ptr noundef nonnull align 2 dereferenceable(256) %1, i8 0, i64 256, i1 false)
  ret void
}